; Function Attrs: nounwind sspstrong uwtable
define internal fastcc noundef ptr @new_bodystmt(ptr noundef captures(none) %0, ptr noundef %1, ptr noundef %2, ptr noundef %3, ptr noundef %4, ptr noundef nonnull readonly captures(none) %5) unnamed_addr #0 {
  %.not = icmp eq ptr %2, null
  br i1 %.not, label %28, label %7

7:                                                ; preds = %6
  %.not23 = icmp eq ptr %3, null
  %8 = select i1 %.not23, ptr %2, ptr %3
  %9 = getelementptr inbounds nuw i8, ptr %1, i64 8
  %.val = load i64, ptr %9, align 4
  %10 = getelementptr i8, ptr %8, i64 16
  %.val25 = load i64, ptr %10, align 4
  %11 = getelementptr i8, ptr %0, i64 288
  %.val.i.i = load ptr, ptr %11, align 8, !tbaa !120
  %12 = tail call ptr @rb_ast_newnode(ptr noundef %.val.i.i, i32 noundef range(i32 0, 115) 19, i64 noundef range(i64 32, 129) 56, i64 noundef 8) #31
  tail call void @rb_node_init(ptr noundef %12, i32 noundef range(i32 0, 115) 19) #31
  %13 = getelementptr inbounds nuw i8, ptr %12, i64 8
  store i64 %.val, ptr %13, align 8
  %.sroa.5.0..sroa_idx = getelementptr inbounds nuw i8, ptr %12, i64 16
  store i64 %.val25, ptr %.sroa.5.0..sroa_idx, align 8
  %14 = load i64, ptr %12, align 8, !tbaa !61
  %15 = and i64 %14, 32767
  %16 = getelementptr inbounds nuw i8, ptr %0, i64 296
  %17 = load i32, ptr %16, align 8, !tbaa !192
  %18 = add nsw i32 %17, 1
  store i32 %18, ptr %16, align 8, !tbaa !192
  %19 = getelementptr inbounds nuw i8, ptr %12, i64 24
  store i32 %17, ptr %19, align 8, !tbaa !193
  %20 = getelementptr inbounds nuw i8, ptr %12, i64 32
  store ptr %1, ptr %20, align 8, !tbaa !202
  %21 = getelementptr inbounds nuw i8, ptr %12, i64 40
  store ptr %2, ptr %21, align 8, !tbaa !204
  %22 = getelementptr inbounds nuw i8, ptr %12, i64 48
  store ptr %3, ptr %22, align 8, !tbaa !205
  %23 = getelementptr inbounds nuw i8, ptr %2, i64 8
  %24 = load i32, ptr %23, align 8, !tbaa !110
  %25 = sext i32 %24 to i64
  %26 = shl nsw i64 %25, 15
  %27 = or disjoint i64 %26, %15
  store i64 %27, ptr %12, align 8, !tbaa !61
  br label %28

28:                                               ; preds = %7, %6
  %.0 = phi ptr [ %12, %7 ], [ %1, %6 ]
  %.not24 = icmp eq ptr %4, null
  br i1 %.not24, label %45, label %29

29:                                               ; preds = %28
  %30 = getelementptr i8, ptr %0, i64 288
  %.val.i.i26 = load ptr, ptr %30, align 8, !tbaa !120
  %31 = tail call ptr @rb_ast_newnode(ptr noundef %.val.i.i26, i32 noundef range(i32 0, 115) 21, i64 noundef range(i64 32, 129) 48, i64 noundef 8) #31
  tail call void @rb_node_init(ptr noundef %31, i32 noundef range(i32 0, 115) 21) #31
  %32 = getelementptr inbounds nuw i8, ptr %31, i64 8
  tail call void @llvm.memcpy.p0.p0.i64(ptr noundef nonnull align 8 dereferenceable(16) %32, ptr noundef nonnull readonly align 4 dereferenceable(16) %5, i64 16, i1 false), !tbaa.struct !11
  %33 = load i32, ptr %5, align 4, !tbaa !51
  %34 = sext i32 %33 to i64
  %35 = load i64, ptr %31, align 8, !tbaa !61
  %36 = and i64 %35, 32767
  %37 = shl nsw i64 %34, 15
  %38 = or disjoint i64 %36, %37
  store i64 %38, ptr %31, align 8, !tbaa !61
  %39 = getelementptr inbounds nuw i8, ptr %0, i64 296
  %40 = load i32, ptr %39, align 8, !tbaa !192
  %41 = add nsw i32 %40, 1
  store i32 %41, ptr %39, align 8, !tbaa !192
  %42 = getelementptr inbounds nuw i8, ptr %31, i64 24
  store i32 %40, ptr %42, align 8, !tbaa !193
  %43 = getelementptr inbounds nuw i8, ptr %31, i64 32
  store ptr %.0, ptr %43, align 8, !tbaa !206
  %44 = getelementptr inbounds nuw i8, ptr %31, i64 40
  store ptr %4, ptr %44, align 8, !tbaa !208
  br label %45

45:                                               ; preds = %29, %28
  %.1 = phi ptr [ %31, %29 ], [ %.0, %28 ]
  %46 = icmp ne ptr %.1, null
  %47 = icmp ne ptr %1, null
  %or.cond.i = and i1 %47, %46
  br i1 %or.cond.i, label %nd_line.exit.i, label %fixpos.exit

nd_line.exit.i:                                   ; preds = %45
  %48 = load i64, ptr %1, align 8, !tbaa !61
  %49 = shl i64 %48, 17
  %50 = load i64, ptr %.1, align 8, !tbaa !61
  %51 = and i64 %50, 32767
  %52 = ashr exact i64 %49, 17
  %53 = and i64 %52, -32768
  %54 = or disjoint i64 %53, %51
  store i64 %54, ptr %.1, align 8, !tbaa !61
  br label %fixpos.exit

fixpos.exit:                                      ; preds = %45, %nd_line.exit.i
  ret ptr %.1
}